target datalayout = "e-m:e-p270:32:32-p271:32:32-p272:64:64-i64:64-i128:128-f80:128-n8:16:32:64-S128"
target triple = "x86_64-pc-linux-gnu"

%struct.uv_passwd_s = type { ptr, i64, i64, ptr, ptr }
%struct.passwd = type { ptr, ptr, i32, i32, ptr, ptr, ptr }

; Function Attrs: nounwind uwtable
define internal i32 @uv__getpwuid_r(ptr noundef %0, i32 noundef %1) #0 {
  %3 = alloca i32, align 4
  %4 = alloca ptr, align 8
  %5 = alloca i32, align 4
  %6 = alloca %struct.passwd, align 8
  %7 = alloca ptr, align 8
  %8 = alloca ptr, align 8
  %9 = alloca i64, align 8
  %10 = alloca i64, align 8
  %11 = alloca i64, align 8
  %12 = alloca i64, align 8
  %13 = alloca i32, align 4
  %14 = alloca i32, align 4
  store ptr %0, ptr %4, align 8
  store i32 %1, ptr %5, align 4
  call void @llvm.lifetime.start.p0(i64 48, ptr %6) #11
  call void @llvm.lifetime.start.p0(i64 8, ptr %7) #11
  call void @llvm.lifetime.start.p0(i64 8, ptr %8) #11
  call void @llvm.lifetime.start.p0(i64 8, ptr %9) #11
  call void @llvm.lifetime.start.p0(i64 8, ptr %10) #11
  call void @llvm.lifetime.start.p0(i64 8, ptr %11) #11
  call void @llvm.lifetime.start.p0(i64 8, ptr %12) #11
  call void @llvm.lifetime.start.p0(i64 4, ptr %13) #11
  %15 = load ptr, ptr %4, align 8
  %16 = icmp eq ptr %15, null
  br i1 %16, label %17, label %18

17:                                               ; preds = %2
  store i32 -22, ptr %3, align 4
  store i32 1, ptr %14, align 4
  br label %131

18:                                               ; preds = %2
  store i64 2000, ptr %9, align 8
  br label %19

19:                                               ; preds = %47, %18
  %20 = load i64, ptr %9, align 8
  %21 = call ptr @uv__malloc(i64 noundef %20)
  store ptr %21, ptr %8, align 8
  %22 = load ptr, ptr %8, align 8
  %23 = icmp eq ptr %22, null
  br i1 %23, label %24, label %25

24:                                               ; preds = %19
  store i32 -12, ptr %3, align 4
  store i32 1, ptr %14, align 4
  br label %131

25:                                               ; preds = %19
  br label %26

26:                                               ; preds = %31, %25
  %27 = load i32, ptr %5, align 4
  %28 = load ptr, ptr %8, align 8
  %29 = load i64, ptr %9, align 8
  %30 = call i32 @getpwuid_r(i32 noundef %27, ptr noundef %6, ptr noundef %28, i64 noundef %29, ptr noundef %7)
  store i32 %30, ptr %13, align 4
  br label %31

31:                                               ; preds = %26
  %32 = load i32, ptr %13, align 4
  %33 = icmp eq i32 %32, 4
  br i1 %33, label %26, label %34

34:                                               ; preds = %31
  %35 = load i32, ptr %13, align 4
  %36 = icmp ne i32 %35, 0
  br i1 %36, label %40, label %37

37:                                               ; preds = %34
  %38 = load ptr, ptr %7, align 8
  %39 = icmp eq ptr %38, null
  br i1 %39, label %40, label %42

40:                                               ; preds = %37, %34
  %41 = load ptr, ptr %8, align 8
  call void @uv__free(ptr noundef %41)
  br label %42

42:                                               ; preds = %40, %37
  %43 = load i32, ptr %13, align 4
  %44 = icmp ne i32 %43, 34
  br i1 %44, label %45, label %46

45:                                               ; preds = %42
  br label %50

46:                                               ; preds = %42
  br label %47

47:                                               ; preds = %46
  %48 = load i64, ptr %9, align 8
  %49 = mul i64 %48, 2
  store i64 %49, ptr %9, align 8
  br label %19

50:                                               ; preds = %45
  %51 = load i32, ptr %13, align 4
  %52 = icmp ne i32 %51, 0
  br i1 %52, label %53, label %56

53:                                               ; preds = %50
  %54 = load i32, ptr %13, align 4
  %55 = sub nsw i32 0, %54
  store i32 %55, ptr %3, align 4
  store i32 1, ptr %14, align 4
  br label %131

56:                                               ; preds = %50
  %57 = load ptr, ptr %7, align 8
  %58 = icmp eq ptr %57, null
  br i1 %58, label %59, label %60

59:                                               ; preds = %56
  store i32 -2, ptr %3, align 4
  store i32 1, ptr %14, align 4
  br label %131

60:                                               ; preds = %56
  %61 = getelementptr inbounds nuw %struct.passwd, ptr %6, i32 0, i32 0
  %62 = load ptr, ptr %61, align 8
  %63 = call i64 @strlen(ptr noundef %62) #13
  %64 = add i64 %63, 1
  store i64 %64, ptr %10, align 8
  %65 = getelementptr inbounds nuw %struct.passwd, ptr %6, i32 0, i32 5
  %66 = load ptr, ptr %65, align 8
  %67 = call i64 @strlen(ptr noundef %66) #13
  %68 = add i64 %67, 1
  store i64 %68, ptr %11, align 8
  %69 = getelementptr inbounds nuw %struct.passwd, ptr %6, i32 0, i32 6
  %70 = load ptr, ptr %69, align 8
  %71 = call i64 @strlen(ptr noundef %70) #13
  %72 = add i64 %71, 1
  store i64 %72, ptr %12, align 8
  %73 = load i64, ptr %10, align 8
  %74 = load i64, ptr %11, align 8
  %75 = add i64 %73, %74
  %76 = load i64, ptr %12, align 8
  %77 = add i64 %75, %76
  %78 = call ptr @uv__malloc(i64 noundef %77)
  %79 = load ptr, ptr %4, align 8
  %80 = getelementptr inbounds nuw %struct.uv_passwd_s, ptr %79, i32 0, i32 0
  store ptr %78, ptr %80, align 8
  %81 = load ptr, ptr %4, align 8
  %82 = getelementptr inbounds nuw %struct.uv_passwd_s, ptr %81, i32 0, i32 0
  %83 = load ptr, ptr %82, align 8
  %84 = icmp eq ptr %83, null
  br i1 %84, label %85, label %87

85:                                               ; preds = %60
  %86 = load ptr, ptr %8, align 8
  call void @uv__free(ptr noundef %86)
  store i32 -12, ptr %3, align 4
  store i32 1, ptr %14, align 4
  br label %131

87:                                               ; preds = %60
  %88 = load ptr, ptr %4, align 8
  %89 = getelementptr inbounds nuw %struct.uv_passwd_s, ptr %88, i32 0, i32 0
  %90 = load ptr, ptr %89, align 8
  %91 = getelementptr inbounds nuw %struct.passwd, ptr %6, i32 0, i32 0
  %92 = load ptr, ptr %91, align 8
  %93 = load i64, ptr %10, align 8
  call void @llvm.memcpy.p0.p0.i64(ptr align 1 %90, ptr align 1 %92, i64 %93, i1 false)
  %94 = load ptr, ptr %4, align 8
  %95 = getelementptr inbounds nuw %struct.uv_passwd_s, ptr %94, i32 0, i32 0
  %96 = load ptr, ptr %95, align 8
  %97 = load i64, ptr %10, align 8
  %98 = getelementptr inbounds nuw i8, ptr %96, i64 %97
  %99 = load ptr, ptr %4, align 8
  %100 = getelementptr inbounds nuw %struct.uv_passwd_s, ptr %99, i32 0, i32 4
  store ptr %98, ptr %100, align 8
  %101 = load ptr, ptr %4, align 8
  %102 = getelementptr inbounds nuw %struct.uv_passwd_s, ptr %101, i32 0, i32 4
  %103 = load ptr, ptr %102, align 8
  %104 = getelementptr inbounds nuw %struct.passwd, ptr %6, i32 0, i32 5
  %105 = load ptr, ptr %104, align 8
  %106 = load i64, ptr %11, align 8
  call void @llvm.memcpy.p0.p0.i64(ptr align 1 %103, ptr align 1 %105, i64 %106, i1 false)
  %107 = load ptr, ptr %4, align 8
  %108 = getelementptr inbounds nuw %struct.uv_passwd_s, ptr %107, i32 0, i32 4
  %109 = load ptr, ptr %108, align 8
  %110 = load i64, ptr %11, align 8
  %111 = getelementptr inbounds nuw i8, ptr %109, i64 %110
  %112 = load ptr, ptr %4, align 8
  %113 = getelementptr inbounds nuw %struct.uv_passwd_s, ptr %112, i32 0, i32 3
  store ptr %111, ptr %113, align 8
  %114 = load ptr, ptr %4, align 8
  %115 = getelementptr inbounds nuw %struct.uv_passwd_s, ptr %114, i32 0, i32 3
  %116 = load ptr, ptr %115, align 8
  %117 = getelementptr inbounds nuw %struct.passwd, ptr %6, i32 0, i32 6
  %118 = load ptr, ptr %117, align 8
  %119 = load i64, ptr %12, align 8
  call void @llvm.memcpy.p0.p0.i64(ptr align 1 %116, ptr align 1 %118, i64 %119, i1 false)
  %120 = getelementptr inbounds nuw %struct.passwd, ptr %6, i32 0, i32 2
  %121 = load i32, ptr %120, align 8
  %122 = zext i32 %121 to i64
  %123 = load ptr, ptr %4, align 8
  %124 = getelementptr inbounds nuw %struct.uv_passwd_s, ptr %123, i32 0, i32 1
  store i64 %122, ptr %124, align 8
  %125 = getelementptr inbounds nuw %struct.passwd, ptr %6, i32 0, i32 3
  %126 = load i32, ptr %125, align 4
  %127 = zext i32 %126 to i64
  %128 = load ptr, ptr %4, align 8
  %129 = getelementptr inbounds nuw %struct.uv_passwd_s, ptr %128, i32 0, i32 2
  store i64 %127, ptr %129, align 8
  %130 = load ptr, ptr %8, align 8
  call void @uv__free(ptr noundef %130)
  store i32 0, ptr %3, align 4
  store i32 1, ptr %14, align 4
  br label %131

131:                                              ; preds = %87, %85, %59, %53, %24, %17
  call void @llvm.lifetime.end.p0(i64 4, ptr %13) #11
  call void @llvm.lifetime.end.p0(i64 8, ptr %12) #11
  call void @llvm.lifetime.end.p0(i64 8, ptr %11) #11
  call void @llvm.lifetime.end.p0(i64 8, ptr %10) #11
  call void @llvm.lifetime.end.p0(i64 8, ptr %9) #11
  call void @llvm.lifetime.end.p0(i64 8, ptr %8) #11
  call void @llvm.lifetime.end.p0(i64 8, ptr %7) #11
  call void @llvm.lifetime.end.p0(i64 48, ptr %6) #11
  %132 = load i32, ptr %3, align 4
  ret i32 %132
}