; Function Attrs: nounwind uwtable
define internal fastcc range(i32 -2147483647, -2147483648) i32 @uv__getpwuid_r(ptr noundef captures(address_is_null) %0, i32 noundef %1) unnamed_addr #0 {
  %3 = alloca %struct.passwd, align 8
  %4 = alloca ptr, align 8
  call void @llvm.lifetime.start.p0(i64 48, ptr nonnull %3) #23
  call void @llvm.lifetime.start.p0(i64 8, ptr nonnull %4) #23
  %5 = icmp eq ptr %0, null
  br i1 %5, label %.loopexit, label %.preheader42

.preheader42:                                     ; preds = %2
  %6 = tail call ptr @uv__malloc(i64 noundef 2000) #23
  %7 = icmp eq ptr %6, null
  br i1 %7, label %.loopexit, label %.preheader

8:                                                ; preds = %20
  %9 = shl i64 %.03549, 1
  %10 = call ptr @uv__malloc(i64 noundef %9) #23
  %11 = icmp eq ptr %10, null
  br i1 %11, label %.loopexit, label %.preheader

.preheader:                                       ; preds = %.preheader42, %8
  %12 = phi ptr [ %10, %8 ], [ %6, %.preheader42 ]
  %.03549 = phi i64 [ %9, %8 ], [ 2000, %.preheader42 ]
  br label %13

13:                                               ; preds = %.preheader, %13
  %14 = call i32 @getpwuid_r(i32 noundef %1, ptr noundef nonnull %3, ptr noundef nonnull %12, i64 noundef %.03549, ptr noundef nonnull %4) #23
  %15 = icmp eq i32 %14, 4
  br i1 %15, label %13, label %16

16:                                               ; preds = %13
  %17 = icmp ne i32 %14, 0
  %18 = load ptr, ptr %4, align 8
  %19 = icmp eq ptr %18, null
  %or.cond = select i1 %17, i1 true, i1 %19
  br i1 %or.cond, label %20, label %.thread41

20:                                               ; preds = %16
  call void @uv__free(ptr noundef nonnull %12) #23
  %.not = icmp eq i32 %14, 34
  br i1 %.not, label %8, label %21

21:                                               ; preds = %20
  br i1 %17, label %22, label %24

22:                                               ; preds = %21
  %23 = sub nsw i32 0, %14
  br label %.loopexit

24:                                               ; preds = %21
  %.pr = load ptr, ptr %4, align 8
  %25 = icmp eq ptr %.pr, null
  br i1 %25, label %.loopexit, label %.thread41

.thread41:                                        ; preds = %16, %24
  %26 = load ptr, ptr %3, align 8
  %27 = call i64 @strlen(ptr noundef nonnull dereferenceable(1) %26) #25
  %28 = add i64 %27, 1
  %29 = getelementptr inbounds nuw i8, ptr %3, i64 32
  %30 = load ptr, ptr %29, align 8
  %31 = call i64 @strlen(ptr noundef nonnull dereferenceable(1) %30) #25
  %32 = add i64 %31, 1
  %33 = getelementptr inbounds nuw i8, ptr %3, i64 40
  %34 = load ptr, ptr %33, align 8
  %35 = call i64 @strlen(ptr noundef nonnull dereferenceable(1) %34) #25
  %36 = add i64 %35, 1
  %37 = add i64 %32, %28
  %38 = add i64 %37, %36
  %39 = call ptr @uv__malloc(i64 noundef %38) #23
  store ptr %39, ptr %0, align 8
  %40 = icmp eq ptr %39, null
  br i1 %40, label %41, label %42

41:                                               ; preds = %.thread41
  call void @uv__free(ptr noundef nonnull %12) #23
  br label %.loopexit

42:                                               ; preds = %.thread41
  %43 = load ptr, ptr %3, align 8
  call void @llvm.memcpy.p0.p0.i64(ptr nonnull align 1 %39, ptr align 1 %43, i64 %28, i1 false)
  %44 = load ptr, ptr %0, align 8
  %45 = getelementptr inbounds nuw i8, ptr %44, i64 %28
  %46 = getelementptr inbounds nuw i8, ptr %0, i64 32
  store ptr %45, ptr %46, align 8
  %47 = load ptr, ptr %29, align 8
  call void @llvm.memcpy.p0.p0.i64(ptr align 1 %45, ptr align 1 %47, i64 %32, i1 false)
  %48 = load ptr, ptr %46, align 8
  %49 = getelementptr inbounds nuw i8, ptr %48, i64 %32
  %50 = getelementptr inbounds nuw i8, ptr %0, i64 24
  store ptr %49, ptr %50, align 8
  %51 = load ptr, ptr %33, align 8
  call void @llvm.memcpy.p0.p0.i64(ptr align 1 %49, ptr align 1 %51, i64 %36, i1 false)
  %52 = getelementptr inbounds nuw i8, ptr %3, i64 16
  %53 = load i32, ptr %52, align 8
  %54 = zext i32 %53 to i64
  %55 = getelementptr inbounds nuw i8, ptr %0, i64 8
  store i64 %54, ptr %55, align 8
  %56 = getelementptr inbounds nuw i8, ptr %3, i64 20
  %57 = load i32, ptr %56, align 4
  %58 = zext i32 %57 to i64
  %59 = getelementptr inbounds nuw i8, ptr %0, i64 16
  store i64 %58, ptr %59, align 8
  call void @uv__free(ptr noundef nonnull %12) #23
  br label %.loopexit

.loopexit:                                        ; preds = %8, %.preheader42, %24, %2, %42, %41, %22
  %.0 = phi i32 [ %23, %22 ], [ -12, %41 ], [ 0, %42 ], [ -22, %2 ], [ -2, %24 ], [ -12, %.preheader42 ], [ -12, %8 ]
  call void @llvm.lifetime.end.p0(i64 8, ptr nonnull %4) #23
  call void @llvm.lifetime.end.p0(i64 48, ptr nonnull %3) #23
  ret i32 %.0
}